; Function Attrs: mustprogress nofree norecurse nounwind willreturn memory(argmem: readwrite, inaccessiblemem: readwrite) uwtable
define hidden noundef zeroext i1 @_ZNK12MutableSpace12needs_expandEm(ptr noundef nonnull align 8 dereferenceable(56) %0, i64 noundef %1) local_unnamed_addr #3 align 2 {
  %3 = getelementptr inbounds i8, ptr %0, i64 48
  %4 = load ptr, ptr %3, align 8
  %5 = getelementptr inbounds i8, ptr %0, i64 40
  %6 = load volatile ptr, ptr %5, align 8
  %7 = ptrtoint ptr %4 to i64
  %8 = ptrtoint ptr %6 to i64
  %9 = sub i64 %7, %8
  %10 = lshr i64 %9, 3
  %11 = icmp ult i64 %10, %1
  ret i1 %11
}